(dp1
S'cookies'
p2
S''
sS'logs'
p3
I00
sS'retries'
p4
I5
sS'exnamespaces'
p5
(lp6
sS'images'
p7
I00
sS'api'
p8
S'http://143.95.40.24/mw/api.php'
p9
sS'namespaces'
p10
(lp11
S'all'
p12
asS'date'
p13
S'20190318'
p14
sS'path'
p15
S'./143954024_mw-20190318-wikidump'
p16
sS'xml'
p17
I01
sS'index'
p18
S'http://143.95.40.24/mw/index.php'
p19
sS'curonly'
p20
I00
sS'delay'
p21
I0
sS'xmlrevisions'
p22
I00
sS'failfast'
p23
I00
s.